; Function Attrs: nounwind uwtable
define ptr @av_packet_new_side_data(ptr noundef captures(none) %0, i32 noundef %1, i64 noundef %2) local_unnamed_addr #3 {
  %4 = alloca ptr, align 8
  call void @llvm.lifetime.start.p0(i64 8, ptr nonnull %4) #16
  %5 = icmp ugt i64 %2, -65
  br i1 %5, label %av_packet_add_side_data.exit, label %6

6:                                                ; preds = %3
  %7 = add nuw i64 %2, 64
  %8 = tail call noalias ptr @av_mallocz(i64 noundef %7) #16
  store ptr %8, ptr %4, align 8, !tbaa !39
  %.not = icmp eq ptr %8, null
  br i1 %.not, label %av_packet_add_side_data.exit, label %9

9:                                                ; preds = %6
  %10 = getelementptr inbounds nuw i8, ptr %0, i64 56
  %11 = load i32, ptr %10, align 8, !tbaa !22
  %12 = icmp sgt i32 %11, 0
  br i1 %12, label %.critedge.lr.ph.i, label %._crit_edge.i

.critedge.lr.ph.i:                                ; preds = %9
  %13 = getelementptr inbounds nuw i8, ptr %0, i64 48
  %14 = load ptr, ptr %13, align 8, !tbaa !21
  %wide.trip.count.i = zext nneg i32 %11 to i64
  br label %.critedge.i

15:                                               ; preds = %.critedge.i
  %indvars.iv.next.i = add nuw nsw i64 %indvars.iv.i, 1
  %exitcond.not.i = icmp eq i64 %indvars.iv.next.i, %wide.trip.count.i
  br i1 %exitcond.not.i, label %._crit_edge.i, label %.critedge.i, !llvm.loop !34

.critedge.i:                                      ; preds = %15, %.critedge.lr.ph.i
  %indvars.iv.i = phi i64 [ 0, %.critedge.lr.ph.i ], [ %indvars.iv.next.i, %15 ]
  %16 = getelementptr inbounds nuw %struct.AVPacketSideData, ptr %14, i64 %indvars.iv.i
  %17 = getelementptr inbounds nuw i8, ptr %16, i64 16
  %18 = load i32, ptr %17, align 8, !tbaa !35
  %.not35.i = icmp eq i32 %18, %1
  br i1 %.not35.i, label %19, label %15

19:                                               ; preds = %.critedge.i
  %20 = load ptr, ptr %16, align 8, !tbaa !37
  tail call void @av_free(ptr noundef %20) #16
  store ptr %8, ptr %16, align 8, !tbaa !37
  %21 = getelementptr inbounds nuw i8, ptr %16, i64 8
  store i64 %2, ptr %21, align 8, !tbaa !38
  br label %av_packet_add_side_data.exit

._crit_edge.i:                                    ; preds = %15, %9
  %22 = add i32 %11, 1
  %23 = icmp ugt i32 %22, 38
  br i1 %23, label %36, label %24

24:                                               ; preds = %._crit_edge.i
  %25 = getelementptr inbounds nuw i8, ptr %0, i64 48
  %26 = load ptr, ptr %25, align 8, !tbaa !21
  %narrow.i = mul nuw nsw i32 %22, 24
  %27 = zext nneg i32 %narrow.i to i64
  %28 = tail call ptr @av_realloc(ptr noundef %26, i64 noundef %27) #16
  %.not.i = icmp eq ptr %28, null
  br i1 %.not.i, label %36, label %29

29:                                               ; preds = %24
  store ptr %28, ptr %25, align 8, !tbaa !21
  %30 = sext i32 %11 to i64
  %31 = getelementptr inbounds %struct.AVPacketSideData, ptr %28, i64 %30
  store ptr %8, ptr %31, align 8, !tbaa !37
  %32 = getelementptr inbounds %struct.AVPacketSideData, ptr %28, i64 %30, i32 1
  store i64 %2, ptr %32, align 8, !tbaa !38
  %33 = getelementptr inbounds %struct.AVPacketSideData, ptr %28, i64 %30, i32 2
  store i32 %1, ptr %33, align 8, !tbaa !35
  %34 = load i32, ptr %10, align 8, !tbaa !22
  %35 = add nsw i32 %34, 1
  store i32 %35, ptr %10, align 8, !tbaa !22
  br label %av_packet_add_side_data.exit

36:                                               ; preds = %._crit_edge.i, %24
  call void @av_freep(ptr noundef nonnull %4) #16
  br label %av_packet_add_side_data.exit

av_packet_add_side_data.exit:                     ; preds = %19, %29, %6, %3, %36
  %.0 = phi ptr [ null, %36 ], [ null, %3 ], [ null, %6 ], [ %8, %29 ], [ %8, %19 ]
  call void @llvm.lifetime.end.p0(i64 8, ptr nonnull %4) #16
  ret ptr %.0
}